target datalayout = "e-m:e-p270:32:32-p271:32:32-p272:64:64-i64:64-i128:128-f80:128-n8:16:32:64-S128"
target triple = "x86_64-pc-linux-gnu"

%struct._zend_array = type { %struct._zend_refcounted_h, %union.anon.4, i32, %union.anon.6, i32, i32, i32, i32, i64, ptr }
%struct._zend_refcounted_h = type { i32, %union.anon.3 }
%union.anon.3 = type { i32 }
%union.anon.4 = type { i32 }
%union.anon.6 = type { ptr }
%struct._zval_struct = type { %union._zend_value, %union.anon, %union.anon.2 }
%union._zend_value = type { i64 }
%union.anon = type { i32 }
%union.anon.2 = type { i32 }
%struct._phar_entry_info = type { i32, i32, i32, i32, i32, i32, %struct._phar_metadata_tracker, i32, ptr, i32, i64, i64, i64, ptr, ptr, i32, ptr, ptr, ptr, i8, i32, i16, i16 }
%struct._phar_metadata_tracker = type { %struct._zval_struct, ptr }
%struct._phar_archive_data = type { ptr, i32, ptr, i32, ptr, i32, [12 x i8], i64, i64, %struct._zend_array, %struct._zend_array, %struct._zend_array, i32, i32, i32, ptr, ptr, i32, i32, i32, ptr, %struct._phar_metadata_tracker, i32, i16 }

@.str.13 = private unnamed_addr constant [44 x i8] c"phar error: unable to create temporary file\00", align 1

; Function Attrs: nounwind uwtable
define hidden i32 @phar_create_writeable_entry(ptr noundef %0, ptr noundef %1, ptr noundef %2) #0 {
  %4 = alloca i32, align 4
  %5 = alloca ptr, align 8
  %6 = alloca ptr, align 8
  %7 = alloca ptr, align 8
  store ptr %0, ptr %5, align 8
  store ptr %1, ptr %6, align 8
  store ptr %2, ptr %7, align 8
  %8 = load ptr, ptr %6, align 8
  %9 = getelementptr inbounds %struct._phar_entry_info, ptr %8, i32 0, i32 9
  %10 = load i32, ptr %9, align 8
  %11 = icmp eq i32 %10, 2
  br i1 %11, label %12, label %44

12:                                               ; preds = %3
  %13 = load ptr, ptr %6, align 8
  %14 = getelementptr inbounds %struct._phar_entry_info, ptr %13, i32 0, i32 13
  %15 = load ptr, ptr %14, align 8
  %16 = call i32 @_php_stream_truncate_set_size(ptr noundef %15, i64 noundef 0)
  %17 = load ptr, ptr %6, align 8
  %18 = getelementptr inbounds %struct._phar_entry_info, ptr %17, i32 0, i32 4
  %19 = load i32, ptr %18, align 8
  %20 = load ptr, ptr %6, align 8
  %21 = getelementptr inbounds %struct._phar_entry_info, ptr %20, i32 0, i32 5
  store i32 %19, ptr %21, align 4
  %22 = load ptr, ptr %6, align 8
  %23 = getelementptr inbounds %struct._phar_entry_info, ptr %22, i32 0, i32 22
  %24 = load i16, ptr %23, align 2
  %25 = and i16 %24, -3
  %26 = or i16 %25, 2
  store i16 %26, ptr %23, align 2
  %27 = load ptr, ptr %5, align 8
  %28 = getelementptr inbounds %struct._phar_archive_data, ptr %27, i32 0, i32 23
  %29 = load i16, ptr %28, align 4
  %30 = and i16 %29, -3
  %31 = or i16 %30, 2
  store i16 %31, ptr %28, align 4
  %32 = load ptr, ptr %6, align 8
  %33 = getelementptr inbounds %struct._phar_entry_info, ptr %32, i32 0, i32 0
  store i32 0, ptr %33, align 8
  %34 = load ptr, ptr %6, align 8
  %35 = getelementptr inbounds %struct._phar_entry_info, ptr %34, i32 0, i32 2
  store i32 0, ptr %35, align 8
  %36 = load ptr, ptr %6, align 8
  %37 = getelementptr inbounds %struct._phar_entry_info, ptr %36, i32 0, i32 3
  store i32 0, ptr %37, align 4
  %38 = load ptr, ptr %6, align 8
  %39 = getelementptr inbounds %struct._phar_entry_info, ptr %38, i32 0, i32 4
  store i32 438, ptr %39, align 8
  %40 = load ptr, ptr %6, align 8
  %41 = getelementptr inbounds %struct._phar_entry_info, ptr %40, i32 0, i32 9
  store i32 2, ptr %41, align 8
  %42 = load ptr, ptr %6, align 8
  %43 = getelementptr inbounds %struct._phar_entry_info, ptr %42, i32 0, i32 11
  store i64 0, ptr %43, align 8
  store i32 0, ptr %4, align 4
  br label %114

44:                                               ; preds = %3
  %45 = load ptr, ptr %7, align 8
  %46 = icmp ne ptr %45, null
  br i1 %46, label %47, label %49

47:                                               ; preds = %44
  %48 = load ptr, ptr %7, align 8
  store ptr null, ptr %48, align 8
  br label %49

49:                                               ; preds = %47, %44
  %50 = load ptr, ptr %6, align 8
  %51 = getelementptr inbounds %struct._phar_entry_info, ptr %50, i32 0, i32 18
  %52 = load ptr, ptr %51, align 8
  %53 = icmp ne ptr %52, null
  br i1 %53, label %54, label %71

54:                                               ; preds = %49
  %55 = load ptr, ptr %6, align 8
  %56 = getelementptr inbounds %struct._phar_entry_info, ptr %55, i32 0, i32 18
  %57 = load ptr, ptr %56, align 8
  call void @_efree(ptr noundef %57)
  %58 = load ptr, ptr %6, align 8
  %59 = getelementptr inbounds %struct._phar_entry_info, ptr %58, i32 0, i32 18
  store ptr null, ptr %59, align 8
  %60 = load ptr, ptr %6, align 8
  %61 = getelementptr inbounds %struct._phar_entry_info, ptr %60, i32 0, i32 22
  %62 = load i16, ptr %61, align 2
  %63 = lshr i16 %62, 6
  %64 = and i16 %63, 1
  %65 = zext i16 %64 to i32
  %66 = icmp ne i32 %65, 0
  %67 = select i1 %66, i32 48, i32 0
  %68 = trunc i32 %67 to i8
  %69 = load ptr, ptr %6, align 8
  %70 = getelementptr inbounds %struct._phar_entry_info, ptr %69, i32 0, i32 19
  store i8 %68, ptr %70, align 8
  br label %71

71:                                               ; preds = %54, %49
  %72 = call ptr @_php_stream_fopen_tmpfile(i32 noundef 0)
  %73 = load ptr, ptr %6, align 8
  %74 = getelementptr inbounds %struct._phar_entry_info, ptr %73, i32 0, i32 13
  store ptr %72, ptr %74, align 8
  %75 = load ptr, ptr %6, align 8
  %76 = getelementptr inbounds %struct._phar_entry_info, ptr %75, i32 0, i32 13
  %77 = load ptr, ptr %76, align 8
  %78 = icmp ne ptr %77, null
  br i1 %78, label %86, label %79

79:                                               ; preds = %71
  %80 = load ptr, ptr %7, align 8
  %81 = icmp ne ptr %80, null
  br i1 %81, label %82, label %85

82:                                               ; preds = %79
  %83 = load ptr, ptr %7, align 8
  %84 = call i64 (ptr, i64, ptr, ...) @zend_spprintf(ptr noundef %83, i64 noundef 0, ptr noundef @.str.13)
  br label %85

85:                                               ; preds = %82, %79
  store i32 -1, ptr %4, align 4
  br label %114

86:                                               ; preds = %71
  %87 = load ptr, ptr %6, align 8
  %88 = getelementptr inbounds %struct._phar_entry_info, ptr %87, i32 0, i32 4
  %89 = load i32, ptr %88, align 8
  %90 = load ptr, ptr %6, align 8
  %91 = getelementptr inbounds %struct._phar_entry_info, ptr %90, i32 0, i32 5
  store i32 %89, ptr %91, align 4
  %92 = load ptr, ptr %6, align 8
  %93 = getelementptr inbounds %struct._phar_entry_info, ptr %92, i32 0, i32 22
  %94 = load i16, ptr %93, align 2
  %95 = and i16 %94, -3
  %96 = or i16 %95, 2
  store i16 %96, ptr %93, align 2
  %97 = load ptr, ptr %5, align 8
  %98 = getelementptr inbounds %struct._phar_archive_data, ptr %97, i32 0, i32 23
  %99 = load i16, ptr %98, align 4
  %100 = and i16 %99, -3
  %101 = or i16 %100, 2
  store i16 %101, ptr %98, align 4
  %102 = load ptr, ptr %6, align 8
  %103 = getelementptr inbounds %struct._phar_entry_info, ptr %102, i32 0, i32 0
  store i32 0, ptr %103, align 8
  %104 = load ptr, ptr %6, align 8
  %105 = getelementptr inbounds %struct._phar_entry_info, ptr %104, i32 0, i32 2
  store i32 0, ptr %105, align 8
  %106 = load ptr, ptr %6, align 8
  %107 = getelementptr inbounds %struct._phar_entry_info, ptr %106, i32 0, i32 3
  store i32 0, ptr %107, align 4
  %108 = load ptr, ptr %6, align 8
  %109 = getelementptr inbounds %struct._phar_entry_info, ptr %108, i32 0, i32 4
  store i32 438, ptr %109, align 8
  %110 = load ptr, ptr %6, align 8
  %111 = getelementptr inbounds %struct._phar_entry_info, ptr %110, i32 0, i32 9
  store i32 2, ptr %111, align 8
  %112 = load ptr, ptr %6, align 8
  %113 = getelementptr inbounds %struct._phar_entry_info, ptr %112, i32 0, i32 11
  store i64 0, ptr %113, align 8
  store i32 0, ptr %4, align 4
  br label %114

114:                                              ; preds = %86, %85, %12
  %115 = load i32, ptr %4, align 4
  ret i32 %115
}