; Function Attrs: nounwind uwtable
define hidden noundef i32 @phar_create_writeable_entry(ptr nocapture noundef %0, ptr nocapture noundef %1, ptr noundef %2) local_unnamed_addr #0 {
  %4 = getelementptr inbounds i8, ptr %1, i64 64
  %5 = load i32, ptr %4, align 8
  %6 = icmp eq i32 %5, 2
  br i1 %6, label %7, label %23

7:                                                ; preds = %3
  %8 = getelementptr inbounds i8, ptr %1, i64 96
  %9 = load ptr, ptr %8, align 8
  %10 = tail call i32 @_php_stream_truncate_set_size(ptr noundef %9, i64 noundef 0) #15
  %11 = getelementptr inbounds i8, ptr %1, i64 16
  %12 = load i32, ptr %11, align 8
  %13 = getelementptr inbounds i8, ptr %1, i64 20
  store i32 %12, ptr %13, align 4
  %14 = getelementptr inbounds i8, ptr %1, i64 154
  %15 = load i16, ptr %14, align 2
  %16 = or i16 %15, 2
  store i16 %16, ptr %14, align 2
  %17 = getelementptr inbounds i8, ptr %0, i64 324
  %18 = load i16, ptr %17, align 4
  %19 = or i16 %18, 2
  store i16 %19, ptr %17, align 4
  store i32 0, ptr %1, align 8
  %20 = getelementptr inbounds i8, ptr %1, i64 8
  store i32 0, ptr %20, align 8
  %21 = getelementptr inbounds i8, ptr %1, i64 12
  store i32 0, ptr %21, align 4
  store i32 438, ptr %11, align 8
  store i32 2, ptr %4, align 8
  %22 = getelementptr inbounds i8, ptr %1, i64 80
  store i64 0, ptr %22, align 8
  br label %53

23:                                               ; preds = %3
  %.not = icmp eq ptr %2, null
  br i1 %.not, label %25, label %24

24:                                               ; preds = %23
  store ptr null, ptr %2, align 8
  br label %25

25:                                               ; preds = %24, %23
  %26 = getelementptr inbounds i8, ptr %1, i64 136
  %27 = load ptr, ptr %26, align 8
  %.not35 = icmp eq ptr %27, null
  br i1 %.not35, label %34, label %28

28:                                               ; preds = %25
  tail call void @_efree(ptr noundef nonnull %27) #15
  store ptr null, ptr %26, align 8
  %29 = getelementptr inbounds i8, ptr %1, i64 154
  %30 = load i16, ptr %29, align 2
  %31 = and i16 %30, 64
  %.not36 = icmp eq i16 %31, 0
  %32 = select i1 %.not36, i8 0, i8 48
  %33 = getelementptr inbounds i8, ptr %1, i64 144
  store i8 %32, ptr %33, align 8
  br label %34

34:                                               ; preds = %28, %25
  %35 = tail call ptr @_php_stream_fopen_tmpfile(i32 noundef 0) #15
  %36 = getelementptr inbounds i8, ptr %1, i64 96
  store ptr %35, ptr %36, align 8
  %.not37 = icmp eq ptr %35, null
  br i1 %.not37, label %37, label %40

37:                                               ; preds = %34
  br i1 %.not, label %53, label %38

38:                                               ; preds = %37
  %39 = tail call i64 (ptr, i64, ptr, ...) @zend_spprintf(ptr noundef nonnull %2, i64 noundef 0, ptr noundef nonnull @.str.13) #15
  br label %53

40:                                               ; preds = %34
  %41 = getelementptr inbounds i8, ptr %1, i64 16
  %42 = load i32, ptr %41, align 8
  %43 = getelementptr inbounds i8, ptr %1, i64 20
  store i32 %42, ptr %43, align 4
  %44 = getelementptr inbounds i8, ptr %1, i64 154
  %45 = load i16, ptr %44, align 2
  %46 = or i16 %45, 2
  store i16 %46, ptr %44, align 2
  %47 = getelementptr inbounds i8, ptr %0, i64 324
  %48 = load i16, ptr %47, align 4
  %49 = or i16 %48, 2
  store i16 %49, ptr %47, align 4
  store i32 0, ptr %1, align 8
  %50 = getelementptr inbounds i8, ptr %1, i64 8
  store i32 0, ptr %50, align 8
  %51 = getelementptr inbounds i8, ptr %1, i64 12
  store i32 0, ptr %51, align 4
  store i32 438, ptr %41, align 8
  store i32 2, ptr %4, align 8
  %52 = getelementptr inbounds i8, ptr %1, i64 80
  store i64 0, ptr %52, align 8
  br label %53

53:                                               ; preds = %37, %38, %40, %7
  %.0 = phi i32 [ 0, %7 ], [ 0, %40 ], [ -1, %38 ], [ -1, %37 ]
  ret i32 %.0
}